target datalayout = "e-m:e-p270:32:32-p271:32:32-p272:64:64-i64:64-i128:128-f80:128-n8:16:32:64-S128"
target triple = "x86_64-pc-linux-gnu"

%struct.ossl_param_st = type { ptr, i32, ptr, i64, i64 }

@.str.17 = private unnamed_addr constant [34 x i8] c"../openssl/test/params_api_test.c\00", align 1
@.str.30 = private unnamed_addr constant [27 x i8] c"OSSL_PARAM_modified(param)\00", align 1
@.str.139 = private unnamed_addr constant [34 x i8] c"OSSL_PARAM_set_int32(param, 1234)\00", align 1
@.str.140 = private unnamed_addr constant [31 x i8] c"OSSL_PARAM_modified(param + 1)\00", align 1
@.str.141 = private unnamed_addr constant [35 x i8] c"OSSL_PARAM_set_int32(param + 1, 1)\00", align 1
@.str.142 = private unnamed_addr constant [34 x i8] c"OSSL_PARAM_set_int32(param, 4321)\00", align 1
@.str.143 = private unnamed_addr constant [35 x i8] c"OSSL_PARAM_set_int32(param + 1, 2)\00", align 1

; Function Attrs: nounwind uwtable
define internal i32 @test_param_modified() #0 {
  %1 = alloca i32, align 4
  %2 = alloca [3 x %struct.ossl_param_st], align 16
  %3 = alloca i32, align 4
  %4 = alloca i32, align 4
  %5 = alloca i32, align 4
  call void @llvm.lifetime.start.p0(i64 120, ptr %2) #5
  call void @llvm.memcpy.p0.p0.i64(ptr align 16 %2, ptr align 16 @__const.test_param_modified.param, i64 120, i1 false)
  call void @llvm.lifetime.start.p0(i64 4, ptr %3) #5
  call void @llvm.lifetime.start.p0(i64 4, ptr %4) #5
  %6 = getelementptr inbounds [3 x %struct.ossl_param_st], ptr %2, i64 0, i64 0
  %7 = getelementptr inbounds nuw %struct.ossl_param_st, ptr %6, i32 0, i32 2
  store ptr %3, ptr %7, align 16, !tbaa !12
  %8 = getelementptr inbounds [3 x %struct.ossl_param_st], ptr %2, i64 0, i64 1
  %9 = getelementptr inbounds nuw %struct.ossl_param_st, ptr %8, i32 0, i32 2
  store ptr %4, ptr %9, align 8, !tbaa !12
  %10 = getelementptr inbounds [3 x %struct.ossl_param_st], ptr %2, i64 0, i64 0
  %11 = call i32 @OSSL_PARAM_modified(ptr noundef %10)
  %12 = icmp ne i32 %11, 0
  %13 = zext i1 %12 to i32
  %14 = call i32 @test_false(ptr noundef @.str.17, i32 noundef 769, ptr noundef @.str.30, i32 noundef %13)
  %15 = icmp ne i32 %14, 0
  br i1 %15, label %55, label %16

16:                                               ; preds = %0
  %17 = getelementptr inbounds [3 x %struct.ossl_param_st], ptr %2, i64 0, i64 0
  %18 = call i32 @OSSL_PARAM_set_int32(ptr noundef %17, i32 noundef 1234)
  %19 = icmp ne i32 %18, 0
  %20 = zext i1 %19 to i32
  %21 = call i32 @test_true(ptr noundef @.str.17, i32 noundef 770, ptr noundef @.str.139, i32 noundef %20)
  %22 = icmp ne i32 %21, 0
  br i1 %22, label %55, label %23

23:                                               ; preds = %16
  %24 = getelementptr inbounds [3 x %struct.ossl_param_st], ptr %2, i64 0, i64 0
  %25 = call i32 @OSSL_PARAM_modified(ptr noundef %24)
  %26 = icmp ne i32 %25, 0
  %27 = zext i1 %26 to i32
  %28 = call i32 @test_true(ptr noundef @.str.17, i32 noundef 771, ptr noundef @.str.30, i32 noundef %27)
  %29 = icmp ne i32 %28, 0
  br i1 %29, label %55, label %30

30:                                               ; preds = %23
  %31 = getelementptr inbounds [3 x %struct.ossl_param_st], ptr %2, i64 0, i64 0
  %32 = getelementptr inbounds %struct.ossl_param_st, ptr %31, i64 1
  %33 = call i32 @OSSL_PARAM_modified(ptr noundef %32)
  %34 = icmp ne i32 %33, 0
  %35 = zext i1 %34 to i32
  %36 = call i32 @test_false(ptr noundef @.str.17, i32 noundef 772, ptr noundef @.str.140, i32 noundef %35)
  %37 = icmp ne i32 %36, 0
  br i1 %37, label %55, label %38

38:                                               ; preds = %30
  %39 = getelementptr inbounds [3 x %struct.ossl_param_st], ptr %2, i64 0, i64 0
  %40 = getelementptr inbounds %struct.ossl_param_st, ptr %39, i64 1
  %41 = call i32 @OSSL_PARAM_set_int32(ptr noundef %40, i32 noundef 1)
  %42 = icmp ne i32 %41, 0
  %43 = zext i1 %42 to i32
  %44 = call i32 @test_true(ptr noundef @.str.17, i32 noundef 773, ptr noundef @.str.141, i32 noundef %43)
  %45 = icmp ne i32 %44, 0
  br i1 %45, label %55, label %46

46:                                               ; preds = %38
  %47 = getelementptr inbounds [3 x %struct.ossl_param_st], ptr %2, i64 0, i64 0
  %48 = getelementptr inbounds %struct.ossl_param_st, ptr %47, i64 1
  %49 = call i32 @OSSL_PARAM_modified(ptr noundef %48)
  %50 = icmp ne i32 %49, 0
  %51 = zext i1 %50 to i32
  %52 = call i32 @test_true(ptr noundef @.str.17, i32 noundef 774, ptr noundef @.str.140, i32 noundef %51)
  %53 = icmp ne i32 %52, 0
  br i1 %53, label %55, label %54

54:                                               ; preds = %46
  store i32 0, ptr %1, align 4
  store i32 1, ptr %5, align 4
  br label %103

55:                                               ; preds = %46, %38, %30, %23, %16, %0
  %56 = getelementptr inbounds [3 x %struct.ossl_param_st], ptr %2, i64 0, i64 0
  call void @OSSL_PARAM_set_all_unmodified(ptr noundef %56)
  %57 = getelementptr inbounds [3 x %struct.ossl_param_st], ptr %2, i64 0, i64 0
  %58 = call i32 @OSSL_PARAM_modified(ptr noundef %57)
  %59 = icmp ne i32 %58, 0
  %60 = zext i1 %59 to i32
  %61 = call i32 @test_false(ptr noundef @.str.17, i32 noundef 777, ptr noundef @.str.30, i32 noundef %60)
  %62 = icmp ne i32 %61, 0
  br i1 %62, label %102, label %63

63:                                               ; preds = %55
  %64 = getelementptr inbounds [3 x %struct.ossl_param_st], ptr %2, i64 0, i64 0
  %65 = call i32 @OSSL_PARAM_set_int32(ptr noundef %64, i32 noundef 4321)
  %66 = icmp ne i32 %65, 0
  %67 = zext i1 %66 to i32
  %68 = call i32 @test_true(ptr noundef @.str.17, i32 noundef 778, ptr noundef @.str.142, i32 noundef %67)
  %69 = icmp ne i32 %68, 0
  br i1 %69, label %102, label %70

70:                                               ; preds = %63
  %71 = getelementptr inbounds [3 x %struct.ossl_param_st], ptr %2, i64 0, i64 0
  %72 = call i32 @OSSL_PARAM_modified(ptr noundef %71)
  %73 = icmp ne i32 %72, 0
  %74 = zext i1 %73 to i32
  %75 = call i32 @test_true(ptr noundef @.str.17, i32 noundef 779, ptr noundef @.str.30, i32 noundef %74)
  %76 = icmp ne i32 %75, 0
  br i1 %76, label %102, label %77

77:                                               ; preds = %70
  %78 = getelementptr inbounds [3 x %struct.ossl_param_st], ptr %2, i64 0, i64 0
  %79 = getelementptr inbounds %struct.ossl_param_st, ptr %78, i64 1
  %80 = call i32 @OSSL_PARAM_modified(ptr noundef %79)
  %81 = icmp ne i32 %80, 0
  %82 = zext i1 %81 to i32
  %83 = call i32 @test_false(ptr noundef @.str.17, i32 noundef 780, ptr noundef @.str.140, i32 noundef %82)
  %84 = icmp ne i32 %83, 0
  br i1 %84, label %102, label %85

85:                                               ; preds = %77
  %86 = getelementptr inbounds [3 x %struct.ossl_param_st], ptr %2, i64 0, i64 0
  %87 = getelementptr inbounds %struct.ossl_param_st, ptr %86, i64 1
  %88 = call i32 @OSSL_PARAM_set_int32(ptr noundef %87, i32 noundef 2)
  %89 = icmp ne i32 %88, 0
  %90 = zext i1 %89 to i32
  %91 = call i32 @test_true(ptr noundef @.str.17, i32 noundef 781, ptr noundef @.str.143, i32 noundef %90)
  %92 = icmp ne i32 %91, 0
  br i1 %92, label %102, label %93

93:                                               ; preds = %85
  %94 = getelementptr inbounds [3 x %struct.ossl_param_st], ptr %2, i64 0, i64 0
  %95 = getelementptr inbounds %struct.ossl_param_st, ptr %94, i64 1
  %96 = call i32 @OSSL_PARAM_modified(ptr noundef %95)
  %97 = icmp ne i32 %96, 0
  %98 = zext i1 %97 to i32
  %99 = call i32 @test_true(ptr noundef @.str.17, i32 noundef 782, ptr noundef @.str.140, i32 noundef %98)
  %100 = icmp ne i32 %99, 0
  br i1 %100, label %102, label %101

101:                                              ; preds = %93
  store i32 0, ptr %1, align 4
  store i32 1, ptr %5, align 4
  br label %103

102:                                              ; preds = %93, %85, %77, %70, %63, %55
  store i32 1, ptr %1, align 4
  store i32 1, ptr %5, align 4
  br label %103

103:                                              ; preds = %102, %101, %54
  call void @llvm.lifetime.end.p0(i64 4, ptr %4) #5
  call void @llvm.lifetime.end.p0(i64 4, ptr %3) #5
  call void @llvm.lifetime.end.p0(i64 120, ptr %2) #5
  %104 = load i32, ptr %1, align 4
  ret i32 %104
}