; Function Attrs: nounwind uwtable
define internal range(i32 0, 2) i32 @test_param_modified() #0 {
  %1 = alloca [3 x %struct.ossl_param_st], align 16
  %2 = alloca i32, align 4
  %3 = alloca i32, align 4
  call void @llvm.lifetime.start.p0(i64 120, ptr nonnull %1) #5
  call void @llvm.memcpy.p0.p0.i64(ptr noundef nonnull align 16 dereferenceable(120) %1, ptr noundef nonnull align 16 dereferenceable(120) @__const.test_param_modified.param, i64 120, i1 false)
  call void @llvm.lifetime.start.p0(i64 4, ptr nonnull %2) #5
  call void @llvm.lifetime.start.p0(i64 4, ptr nonnull %3) #5
  %4 = getelementptr inbounds nuw i8, ptr %1, i64 16
  store ptr %2, ptr %4, align 16, !tbaa !9
  %5 = getelementptr inbounds nuw i8, ptr %1, i64 40
  %6 = getelementptr inbounds nuw i8, ptr %1, i64 56
  store ptr %3, ptr %6, align 8, !tbaa !9
  %7 = call i32 @OSSL_PARAM_modified(ptr noundef nonnull %1) #5
  %8 = icmp ne i32 %7, 0
  %9 = zext i1 %8 to i32
  %10 = call i32 @test_false(ptr noundef nonnull @.str.17, i32 noundef 769, ptr noundef nonnull @.str.30, i32 noundef %9) #5
  %.not = icmp eq i32 %10, 0
  br i1 %.not, label %11, label %36

11:                                               ; preds = %0
  %12 = call i32 @OSSL_PARAM_set_int32(ptr noundef nonnull %1, i32 noundef 1234) #5
  %13 = icmp ne i32 %12, 0
  %14 = zext i1 %13 to i32
  %15 = call i32 @test_true(ptr noundef nonnull @.str.17, i32 noundef 770, ptr noundef nonnull @.str.139, i32 noundef %14) #5
  %.not1 = icmp eq i32 %15, 0
  br i1 %.not1, label %16, label %36

16:                                               ; preds = %11
  %17 = call i32 @OSSL_PARAM_modified(ptr noundef nonnull %1) #5
  %18 = icmp ne i32 %17, 0
  %19 = zext i1 %18 to i32
  %20 = call i32 @test_true(ptr noundef nonnull @.str.17, i32 noundef 771, ptr noundef nonnull @.str.30, i32 noundef %19) #5
  %.not2 = icmp eq i32 %20, 0
  br i1 %.not2, label %21, label %36

21:                                               ; preds = %16
  %22 = call i32 @OSSL_PARAM_modified(ptr noundef nonnull %5) #5
  %23 = icmp ne i32 %22, 0
  %24 = zext i1 %23 to i32
  %25 = call i32 @test_false(ptr noundef nonnull @.str.17, i32 noundef 772, ptr noundef nonnull @.str.140, i32 noundef %24) #5
  %.not3 = icmp eq i32 %25, 0
  br i1 %.not3, label %26, label %36

26:                                               ; preds = %21
  %27 = call i32 @OSSL_PARAM_set_int32(ptr noundef nonnull %5, i32 noundef 1) #5
  %28 = icmp ne i32 %27, 0
  %29 = zext i1 %28 to i32
  %30 = call i32 @test_true(ptr noundef nonnull @.str.17, i32 noundef 773, ptr noundef nonnull @.str.141, i32 noundef %29) #5
  %.not4 = icmp eq i32 %30, 0
  br i1 %.not4, label %31, label %36

31:                                               ; preds = %26
  %32 = call i32 @OSSL_PARAM_modified(ptr noundef nonnull %5) #5
  %33 = icmp ne i32 %32, 0
  %34 = zext i1 %33 to i32
  %35 = call i32 @test_true(ptr noundef nonnull @.str.17, i32 noundef 774, ptr noundef nonnull @.str.140, i32 noundef %34) #5
  %.not5 = icmp eq i32 %35, 0
  br i1 %.not5, label %67, label %36

36:                                               ; preds = %31, %26, %21, %16, %11, %0
  call void @OSSL_PARAM_set_all_unmodified(ptr noundef nonnull %1) #5
  %37 = call i32 @OSSL_PARAM_modified(ptr noundef nonnull %1) #5
  %38 = icmp ne i32 %37, 0
  %39 = zext i1 %38 to i32
  %40 = call i32 @test_false(ptr noundef nonnull @.str.17, i32 noundef 777, ptr noundef nonnull @.str.30, i32 noundef %39) #5
  %.not6 = icmp eq i32 %40, 0
  br i1 %.not6, label %41, label %66

41:                                               ; preds = %36
  %42 = call i32 @OSSL_PARAM_set_int32(ptr noundef nonnull %1, i32 noundef 4321) #5
  %43 = icmp ne i32 %42, 0
  %44 = zext i1 %43 to i32
  %45 = call i32 @test_true(ptr noundef nonnull @.str.17, i32 noundef 778, ptr noundef nonnull @.str.142, i32 noundef %44) #5
  %.not7 = icmp eq i32 %45, 0
  br i1 %.not7, label %46, label %66

46:                                               ; preds = %41
  %47 = call i32 @OSSL_PARAM_modified(ptr noundef nonnull %1) #5
  %48 = icmp ne i32 %47, 0
  %49 = zext i1 %48 to i32
  %50 = call i32 @test_true(ptr noundef nonnull @.str.17, i32 noundef 779, ptr noundef nonnull @.str.30, i32 noundef %49) #5
  %.not8 = icmp eq i32 %50, 0
  br i1 %.not8, label %51, label %66

51:                                               ; preds = %46
  %52 = call i32 @OSSL_PARAM_modified(ptr noundef nonnull %5) #5
  %53 = icmp ne i32 %52, 0
  %54 = zext i1 %53 to i32
  %55 = call i32 @test_false(ptr noundef nonnull @.str.17, i32 noundef 780, ptr noundef nonnull @.str.140, i32 noundef %54) #5
  %.not9 = icmp eq i32 %55, 0
  br i1 %.not9, label %56, label %66

56:                                               ; preds = %51
  %57 = call i32 @OSSL_PARAM_set_int32(ptr noundef nonnull %5, i32 noundef 2) #5
  %58 = icmp ne i32 %57, 0
  %59 = zext i1 %58 to i32
  %60 = call i32 @test_true(ptr noundef nonnull @.str.17, i32 noundef 781, ptr noundef nonnull @.str.143, i32 noundef %59) #5
  %.not10 = icmp eq i32 %60, 0
  br i1 %.not10, label %61, label %66

61:                                               ; preds = %56
  %62 = call i32 @OSSL_PARAM_modified(ptr noundef nonnull %5) #5
  %63 = icmp ne i32 %62, 0
  %64 = zext i1 %63 to i32
  %65 = call i32 @test_true(ptr noundef nonnull @.str.17, i32 noundef 782, ptr noundef nonnull @.str.140, i32 noundef %64) #5
  %.not11 = icmp eq i32 %65, 0
  br i1 %.not11, label %67, label %66

66:                                               ; preds = %61, %56, %51, %46, %41, %36
  br label %67

67:                                               ; preds = %61, %31, %66
  %.0 = phi i32 [ 1, %66 ], [ 0, %31 ], [ 0, %61 ]
  call void @llvm.lifetime.end.p0(i64 4, ptr nonnull %3) #5
  call void @llvm.lifetime.end.p0(i64 4, ptr nonnull %2) #5
  call void @llvm.lifetime.end.p0(i64 120, ptr nonnull %1) #5
  ret i32 %.0
}